; Function Attrs: mustprogress nofree norecurse nosync nounwind memory(argmem: readwrite) uwtable
define void @_ZN3gmx10shiftAtomsERKNS_11BasicVectorIfEENS_8ArrayRefIS1_EE(ptr noundef nonnull readonly align 4 captures(none) dereferenceable(12) %0, ptr %1, ptr readnone %2) local_unnamed_addr #0 {
  %.sroa.23.0..sroa_idx = getelementptr inbounds nuw i8, ptr %0, i64 8
  %.sroa.23.0.copyload = load float, ptr %.sroa.23.0..sroa_idx, align 4, !tbaa !4
  %.not16.i = icmp eq ptr %1, %2
  br i1 %.not16.i, label %"_ZSt9transformIN3gmx12ArrayRefIterINS0_11BasicVectorIfEEEES4_ZNS0_10shiftAtomsERKS3_NS0_8ArrayRefIS3_EEE3$_0ET0_T_SB_SA_T1_.exit", label %.lr.ph.i

.lr.ph.i:                                         ; preds = %3
  %.sroa.02.0.copyload = load <2 x float>, ptr %0, align 4
  br label %4

4:                                                ; preds = %4, %.lr.ph.i
  %.sroa.014.018.i = phi ptr [ %1, %.lr.ph.i ], [ %6, %4 ]
  %.sroa.03.0.copyload.i = load <2 x float>, ptr %.sroa.014.018.i, align 4
  %.sroa.24.0..sroa_idx.i = getelementptr inbounds nuw i8, ptr %.sroa.014.018.i, i64 8
  %.sroa.24.0.copyload.i = load float, ptr %.sroa.24.0..sroa_idx.i, align 4, !tbaa !4
  %5 = fadd float %.sroa.23.0.copyload, %.sroa.24.0.copyload.i
  %.sroa.0.4.vec.insert.i.i.i = fadd <2 x float> %.sroa.02.0.copyload, %.sroa.03.0.copyload.i
  store <2 x float> %.sroa.0.4.vec.insert.i.i.i, ptr %.sroa.014.018.i, align 4
  store float %5, ptr %.sroa.24.0..sroa_idx.i, align 4, !tbaa !4
  %6 = getelementptr i8, ptr %.sroa.014.018.i, i64 12
  %.not.i = icmp eq ptr %6, %2
  br i1 %.not.i, label %"_ZSt9transformIN3gmx12ArrayRefIterINS0_11BasicVectorIfEEEES4_ZNS0_10shiftAtomsERKS3_NS0_8ArrayRefIS3_EEE3$_0ET0_T_SB_SA_T1_.exit", label %4, !llvm.loop !7

"_ZSt9transformIN3gmx12ArrayRefIterINS0_11BasicVectorIfEEEES4_ZNS0_10shiftAtomsERKS3_NS0_8ArrayRefIS3_EEE3$_0ET0_T_SB_SA_T1_.exit": ; preds = %4, %3
  ret void
}